target datalayout = "e-m:e-p270:32:32-p271:32:32-p272:64:64-i64:64-i128:128-f80:128-n8:16:32:64-S128"
target triple = "x86_64-pc-linux-gnu"

; Function Attrs: mustprogress nounwind uwtable
define noundef i32 @_ZN7rocksdb12GetEntryTypeENS_9ValueTypeE(i8 noundef zeroext %0) #5 {
  %2 = alloca i32, align 4
  %3 = alloca i8, align 1
  store i8 %0, ptr %3, align 1, !tbaa !8
  %4 = load i8, ptr %3, align 1, !tbaa !8
  %5 = zext i8 %4 to i32
  switch i32 %5, label %15 [
    i32 1, label %6
    i32 0, label %7
    i32 20, label %8
    i32 7, label %9
    i32 2, label %10
    i32 15, label %11
    i32 17, label %12
    i32 22, label %13
    i32 24, label %14
  ]

6:                                                ; preds = %1
  store i32 0, ptr %2, align 4
  br label %16

7:                                                ; preds = %1
  store i32 1, ptr %2, align 4
  br label %16

8:                                                ; preds = %1
  store i32 6, ptr %2, align 4
  br label %16

9:                                                ; preds = %1
  store i32 2, ptr %2, align 4
  br label %16

10:                                               ; preds = %1
  store i32 3, ptr %2, align 4
  br label %16

11:                                               ; preds = %1
  store i32 4, ptr %2, align 4
  br label %16

12:                                               ; preds = %1
  store i32 5, ptr %2, align 4
  br label %16

13:                                               ; preds = %1
  store i32 7, ptr %2, align 4
  br label %16

14:                                               ; preds = %1
  store i32 8, ptr %2, align 4
  br label %16

15:                                               ; preds = %1
  store i32 9, ptr %2, align 4
  br label %16

16:                                               ; preds = %15, %14, %13, %12, %11, %10, %9, %8, %7, %6
  %17 = load i32, ptr %2, align 4
  ret i32 %17
}