; Function Attrs: mustprogress nofree norecurse nosync nounwind willreturn memory(none) uwtable
define noundef range(i32 0, 10) i32 @_ZN7rocksdb12GetEntryTypeENS_9ValueTypeE(i8 noundef zeroext %0) local_unnamed_addr #3 {
  switch i8 %0, label %10 [
    i8 1, label %11
    i8 0, label %2
    i8 20, label %3
    i8 7, label %4
    i8 2, label %5
    i8 15, label %6
    i8 17, label %7
    i8 22, label %8
    i8 24, label %9
  ]

2:                                                ; preds = %1
  br label %11

3:                                                ; preds = %1
  br label %11

4:                                                ; preds = %1
  br label %11

5:                                                ; preds = %1
  br label %11

6:                                                ; preds = %1
  br label %11

7:                                                ; preds = %1
  br label %11

8:                                                ; preds = %1
  br label %11

9:                                                ; preds = %1
  br label %11

10:                                               ; preds = %1
  br label %11

11:                                               ; preds = %1, %10, %9, %8, %7, %6, %5, %4, %3, %2
  %.0 = phi i32 [ 9, %10 ], [ 8, %9 ], [ 7, %8 ], [ 5, %7 ], [ 4, %6 ], [ 3, %5 ], [ 2, %4 ], [ 6, %3 ], [ 1, %2 ], [ 0, %1 ]
  ret i32 %.0
}